target datalayout = "e-m:e-p270:32:32-p271:32:32-p272:64:64-i64:64-i128:128-f80:128-n8:16:32:64-S128"
target triple = "x86_64-unknown-linux-gnu"

%"struct.msdfgen::Vector2" = type { double, double }
%"class.msdfgen::EdgeSegment.base" = type <{ ptr, i32 }>
%"class.msdfgen::EdgeSegment" = type <{ ptr, i32, [4 x i8] }>
%"class.msdfgen::CubicSegment" = type { %"class.msdfgen::EdgeSegment.base", [4 x %"struct.msdfgen::Vector2"] }

; Function Attrs: mustprogress nounwind uwtable
define linkonce_odr dso_local void @_ZN7msdfgen11EdgeSegmentD2Ev(ptr noundef nonnull align 8 dereferenceable(12) %this) unnamed_addr #4 comdat align 2 {
entry:
  %this.addr = alloca ptr, align 8
  store ptr %this, ptr %this.addr, align 8
  ret void
}

; Function Attrs: mustprogress nounwind uwtable
define linkonce_odr dso_local void @_ZN7msdfgen7Vector2C2Ed(ptr noundef nonnull align 8 dereferenceable(16) %this, double noundef %val) unnamed_addr #4 comdat align 2 {
entry:
  %this.addr = alloca ptr, align 8
  %val.addr = alloca double, align 8
  store ptr %this, ptr %this.addr, align 8
  store double %val, ptr %val.addr, align 8
  %this1 = load ptr, ptr %this.addr, align 8
  %x = getelementptr inbounds %"struct.msdfgen::Vector2", ptr %this1, i32 0, i32 0
  %0 = load double, ptr %val.addr, align 8
  store double %0, ptr %x, align 8
  %y = getelementptr inbounds %"struct.msdfgen::Vector2", ptr %this1, i32 0, i32 1
  %1 = load double, ptr %val.addr, align 8
  store double %1, ptr %y, align 8
  ret void
}

; Function Attrs: mustprogress nounwind uwtable
define linkonce_odr dso_local void @_ZN7msdfgen11EdgeSegmentC2ENS_9EdgeColorE(ptr noundef nonnull align 8 dereferenceable(12) %this, i32 noundef %edgeColor) unnamed_addr #4 comdat align 2 {
entry:
  %this.addr = alloca ptr, align 8
  %edgeColor.addr = alloca i32, align 4
  store ptr %this, ptr %this.addr, align 8
  store i32 %edgeColor, ptr %edgeColor.addr, align 4
  %this1 = load ptr, ptr %this.addr, align 8
  store ptr getelementptr inbounds ({ [18 x ptr] }, ptr @_ZTVN7msdfgen11EdgeSegmentE, i32 0, i32 0, i32 2), ptr %this1, align 8
  %color = getelementptr inbounds %"class.msdfgen::EdgeSegment", ptr %this1, i32 0, i32 1
  %0 = load i32, ptr %edgeColor.addr, align 4
  store i32 %0, ptr %color, align 8
  ret void
}

; Function Attrs: mustprogress uwtable
define dso_local void @_ZN7msdfgen12CubicSegmentC2ENS_7Vector2ES1_S1_S1_NS_9EdgeColorE(ptr noundef nonnull align 8 dereferenceable(80) %this, double %p0.coerce0, double %p0.coerce1, double %p1.coerce0, double %p1.coerce1, double %p2.coerce0, double %p2.coerce1, double %p3.coerce0, double %p3.coerce1, i32 noundef %edgeColor) unnamed_addr #0 align 2 personality ptr @__gxx_personality_v0 {
entry:
  %p0 = alloca %"struct.msdfgen::Vector2", align 8
  %p1 = alloca %"struct.msdfgen::Vector2", align 8
  %p2 = alloca %"struct.msdfgen::Vector2", align 8
  %p3 = alloca %"struct.msdfgen::Vector2", align 8
  %this.addr = alloca ptr, align 8
  %edgeColor.addr = alloca i32, align 4
  %exn.slot = alloca ptr, align 8
  %ehselector.slot = alloca i32, align 4
  %0 = getelementptr inbounds { double, double }, ptr %p0, i32 0, i32 0
  store double %p0.coerce0, ptr %0, align 8
  %1 = getelementptr inbounds { double, double }, ptr %p0, i32 0, i32 1
  store double %p0.coerce1, ptr %1, align 8
  %2 = getelementptr inbounds { double, double }, ptr %p1, i32 0, i32 0
  store double %p1.coerce0, ptr %2, align 8
  %3 = getelementptr inbounds { double, double }, ptr %p1, i32 0, i32 1
  store double %p1.coerce1, ptr %3, align 8
  %4 = getelementptr inbounds { double, double }, ptr %p2, i32 0, i32 0
  store double %p2.coerce0, ptr %4, align 8
  %5 = getelementptr inbounds { double, double }, ptr %p2, i32 0, i32 1
  store double %p2.coerce1, ptr %5, align 8
  %6 = getelementptr inbounds { double, double }, ptr %p3, i32 0, i32 0
  store double %p3.coerce0, ptr %6, align 8
  %7 = getelementptr inbounds { double, double }, ptr %p3, i32 0, i32 1
  store double %p3.coerce1, ptr %7, align 8
  store ptr %this, ptr %this.addr, align 8
  store i32 %edgeColor, ptr %edgeColor.addr, align 4
  %this1 = load ptr, ptr %this.addr, align 8
  %8 = load i32, ptr %edgeColor.addr, align 4
  call void @_ZN7msdfgen11EdgeSegmentC2ENS_9EdgeColorE(ptr noundef nonnull align 8 dereferenceable(12) %this1, i32 noundef %8)
  store ptr getelementptr inbounds ({ [18 x ptr] }, ptr @_ZTVN7msdfgen12CubicSegmentE, i32 0, i32 0, i32 2), ptr %this1, align 8
  %p = getelementptr inbounds %"class.msdfgen::CubicSegment", ptr %this1, i32 0, i32 1
  %array.begin = getelementptr inbounds [4 x %"struct.msdfgen::Vector2"], ptr %p, i32 0, i32 0
  %arrayctor.end = getelementptr inbounds %"struct.msdfgen::Vector2", ptr %array.begin, i64 4
  br label %arrayctor.loop

arrayctor.loop:                                   ; preds = %invoke.cont, %entry
  %arrayctor.cur = phi ptr [ %array.begin, %entry ], [ %arrayctor.next, %invoke.cont ]
  invoke void @_ZN7msdfgen7Vector2C2Ed(ptr noundef nonnull align 8 dereferenceable(16) %arrayctor.cur, double noundef 0.000000e+00)
          to label %invoke.cont unwind label %lpad

invoke.cont:                                      ; preds = %arrayctor.loop
  %arrayctor.next = getelementptr inbounds %"struct.msdfgen::Vector2", ptr %arrayctor.cur, i64 1
  %arrayctor.done = icmp eq ptr %arrayctor.next, %arrayctor.end
  br i1 %arrayctor.done, label %arrayctor.cont, label %arrayctor.loop

arrayctor.cont:                                   ; preds = %invoke.cont
  %p4 = getelementptr inbounds %"class.msdfgen::CubicSegment", ptr %this1, i32 0, i32 1
  %arrayidx = getelementptr inbounds [4 x %"struct.msdfgen::Vector2"], ptr %p4, i64 0, i64 0
  call void @llvm.memcpy.p0.p0.i64(ptr align 8 %arrayidx, ptr align 8 %p0, i64 16, i1 false)
  %p5 = getelementptr inbounds %"class.msdfgen::CubicSegment", ptr %this1, i32 0, i32 1
  %arrayidx6 = getelementptr inbounds [4 x %"struct.msdfgen::Vector2"], ptr %p5, i64 0, i64 1
  call void @llvm.memcpy.p0.p0.i64(ptr align 8 %arrayidx6, ptr align 8 %p1, i64 16, i1 false)
  %p7 = getelementptr inbounds %"class.msdfgen::CubicSegment", ptr %this1, i32 0, i32 1
  %arrayidx8 = getelementptr inbounds [4 x %"struct.msdfgen::Vector2"], ptr %p7, i64 0, i64 2
  call void @llvm.memcpy.p0.p0.i64(ptr align 8 %arrayidx8, ptr align 8 %p2, i64 16, i1 false)
  %p9 = getelementptr inbounds %"class.msdfgen::CubicSegment", ptr %this1, i32 0, i32 1
  %arrayidx10 = getelementptr inbounds [4 x %"struct.msdfgen::Vector2"], ptr %p9, i64 0, i64 3
  call void @llvm.memcpy.p0.p0.i64(ptr align 8 %arrayidx10, ptr align 8 %p3, i64 16, i1 false)
  ret void

lpad:                                             ; preds = %arrayctor.loop
  %9 = landingpad { ptr, i32 }
          cleanup
  %10 = extractvalue { ptr, i32 } %9, 0
  store ptr %10, ptr %exn.slot, align 8
  %11 = extractvalue { ptr, i32 } %9, 1
  store i32 %11, ptr %ehselector.slot, align 4
  call void @_ZN7msdfgen11EdgeSegmentD2Ev(ptr noundef nonnull align 8 dereferenceable(12) %this1) #11
  br label %eh.resume

eh.resume:                                        ; preds = %lpad
  %exn = load ptr, ptr %exn.slot, align 8
  %sel = load i32, ptr %ehselector.slot, align 4
  %lpad.val = insertvalue { ptr, i32 } poison, ptr %exn, 0
  %lpad.val11 = insertvalue { ptr, i32 } %lpad.val, i32 %sel, 1
  resume { ptr, i32 } %lpad.val11
}