; Function Attrs: mustprogress nofree norecurse nosync nounwind willreturn memory(argmem: write) uwtable
define dso_local void @_ZN7msdfgen12CubicSegmentC2ENS_7Vector2ES1_S1_S1_NS_9EdgeColorE(ptr nocapture noundef nonnull writeonly align 8 dereferenceable(80) %this, double %p0.coerce0, double %p0.coerce1, double %p1.coerce0, double %p1.coerce1, double %p2.coerce0, double %p2.coerce1, double %p3.coerce0, double %p3.coerce1, i32 noundef %edgeColor) unnamed_addr #5 align 2 personality ptr @__gxx_personality_v0 {
entry:
  %color.i = getelementptr inbounds i8, ptr %this, i64 8
  store i32 %edgeColor, ptr %color.i, align 8
  store ptr getelementptr inbounds ({ [18 x ptr] }, ptr @_ZTVN7msdfgen12CubicSegmentE, i64 0, i32 0, i64 2), ptr %this, align 8
  %scevgep = getelementptr inbounds i8, ptr %this, i64 16
  store double %p0.coerce0, ptr %scevgep, align 8
  %p0.sroa.2.0.arrayidx.sroa_idx = getelementptr inbounds i8, ptr %this, i64 24
  store double %p0.coerce1, ptr %p0.sroa.2.0.arrayidx.sroa_idx, align 8
  %arrayidx6 = getelementptr inbounds i8, ptr %this, i64 32
  store double %p1.coerce0, ptr %arrayidx6, align 8
  %p1.sroa.2.0.arrayidx6.sroa_idx = getelementptr inbounds i8, ptr %this, i64 40
  store double %p1.coerce1, ptr %p1.sroa.2.0.arrayidx6.sroa_idx, align 8
  %arrayidx8 = getelementptr inbounds i8, ptr %this, i64 48
  store double %p2.coerce0, ptr %arrayidx8, align 8
  %p2.sroa.2.0.arrayidx8.sroa_idx = getelementptr inbounds i8, ptr %this, i64 56
  store double %p2.coerce1, ptr %p2.sroa.2.0.arrayidx8.sroa_idx, align 8
  %arrayidx10 = getelementptr inbounds i8, ptr %this, i64 64
  store double %p3.coerce0, ptr %arrayidx10, align 8
  %p3.sroa.2.0.arrayidx10.sroa_idx = getelementptr inbounds i8, ptr %this, i64 72
  store double %p3.coerce1, ptr %p3.sroa.2.0.arrayidx10.sroa_idx, align 8
  ret void
}